target datalayout = "e-m:e-p270:32:32-p271:32:32-p272:64:64-i64:64-i128:128-f80:128-n8:16:32:64-S128"
target triple = "x86_64-pc-linux-gnu"

; Function Attrs: mustprogress nounwind uwtable
define noundef zeroext i1 @_ZN6google8protobuf11safe_strtofEPKcPf(ptr noundef %0, ptr noundef %1) #6 {
  %3 = alloca ptr, align 8
  %4 = alloca ptr, align 8
  %5 = alloca ptr, align 8
  store ptr %0, ptr %3, align 8, !tbaa !8
  store ptr %1, ptr %4, align 8, !tbaa !85
  call void @llvm.lifetime.start.p0(i64 8, ptr %5) #3
  %6 = call ptr @__errno_location() #23
  store i32 0, ptr %6, align 4, !tbaa !15
  %7 = load ptr, ptr %3, align 8, !tbaa !8
  %8 = call float @strtof(ptr noundef %7, ptr noundef %5) #3
  %9 = load ptr, ptr %4, align 8, !tbaa !85
  store float %8, ptr %9, align 4, !tbaa !77
  %10 = load ptr, ptr %3, align 8, !tbaa !8
  %11 = load i8, ptr %10, align 1, !tbaa !10
  %12 = sext i8 %11 to i32
  %13 = icmp ne i32 %12, 0
  br i1 %13, label %14, label %23

14:                                               ; preds = %2
  %15 = load ptr, ptr %5, align 8, !tbaa !8
  %16 = load i8, ptr %15, align 1, !tbaa !10
  %17 = sext i8 %16 to i32
  %18 = icmp eq i32 %17, 0
  br i1 %18, label %19, label %23

19:                                               ; preds = %14
  %20 = call ptr @__errno_location() #23
  %21 = load i32, ptr %20, align 4, !tbaa !15
  %22 = icmp eq i32 %21, 0
  br label %23

23:                                               ; preds = %19, %14, %2
  %24 = phi i1 [ false, %14 ], [ false, %2 ], [ %22, %19 ]
  call void @llvm.lifetime.end.p0(i64 8, ptr %5) #3
  ret i1 %24
}