; Function Attrs: mustprogress nofree nounwind willreturn uwtable
define noundef zeroext i1 @_ZN6google8protobuf11safe_strtofEPKcPf(ptr noundef %0, ptr noundef writeonly captures(none) initializes((0, 4)) %1) local_unnamed_addr #13 {
  %3 = alloca ptr, align 8
  call void @llvm.lifetime.start.p0(i64 8, ptr nonnull %3) #31
  %4 = tail call ptr @__errno_location() #34
  store i32 0, ptr %4, align 4, !tbaa !65
  %5 = call float @strtof(ptr noundef %0, ptr noundef nonnull %3) #31
  store float %5, ptr %1, align 4, !tbaa !83
  %6 = load i8, ptr %0, align 1, !tbaa !11
  %.not = icmp eq i8 %6, 0
  br i1 %.not, label %14, label %7

7:                                                ; preds = %2
  %8 = load ptr, ptr %3, align 8, !tbaa !75
  %9 = load i8, ptr %8, align 1, !tbaa !11
  %10 = icmp eq i8 %9, 0
  br i1 %10, label %11, label %14

11:                                               ; preds = %7
  %12 = load i32, ptr %4, align 4, !tbaa !65
  %13 = icmp eq i32 %12, 0
  br label %14

14:                                               ; preds = %11, %7, %2
  %15 = phi i1 [ false, %7 ], [ false, %2 ], [ %13, %11 ]
  call void @llvm.lifetime.end.p0(i64 8, ptr nonnull %3) #31
  ret i1 %15
}